; Function Attrs: mustprogress nofree norecurse nosync nounwind willreturn memory(read, argmem: readwrite, inaccessiblemem: none) uwtable
define void @_Z23dd_get_constraint_rangeRK12gmx_domdec_tPiS2_(ptr noundef nonnull readonly align 8 captures(none) dereferenceable(1072) %0, ptr noundef writeonly captures(none) initializes((0, 4)) %1, ptr noundef writeonly captures(none) initializes((0, 4)) %2) local_unnamed_addr #14 {
  %4 = getelementptr inbounds nuw i8, ptr %0, i64 912
  %5 = load ptr, ptr %4, align 8, !tbaa !8
  %6 = getelementptr inbounds nuw i8, ptr %5, i64 1004
  %7 = load i32, ptr %6, align 4, !tbaa !4
  store i32 %7, ptr %1, align 4, !tbaa !4
  %8 = getelementptr inbounds nuw i8, ptr %5, i64 1008
  %9 = load i32, ptr %8, align 4, !tbaa !4
  store i32 %9, ptr %2, align 4, !tbaa !4
  ret void
}